target datalayout = "e-m:e-p270:32:32-p271:32:32-p272:64:64-i64:64-i128:128-f80:128-n8:16:32:64-S128"
target triple = "x86_64-pc-linux-gnu"

%struct.mbedtls_cipher_info_t = type { ptr, i32 }
%struct.mbedtls_cipher_context_t = type { ptr, i32, i32, ptr, ptr, [16 x i8], i64, [16 x i8], i64, ptr, ptr }

; Function Attrs: nounwind uwtable
define hidden i32 @mbedtls_cipher_write_tag(ptr noundef %0, ptr noundef %1, i64 noundef %2) #0 {
  %4 = alloca i32, align 4
  %5 = alloca ptr, align 8
  %6 = alloca ptr, align 8
  %7 = alloca i64, align 8
  %8 = alloca i64, align 8
  store ptr %0, ptr %5, align 8, !tbaa !29
  store ptr %1, ptr %6, align 8, !tbaa !18
  store i64 %2, ptr %7, align 8, !tbaa !43
  %9 = load ptr, ptr %5, align 8, !tbaa !29
  %10 = getelementptr inbounds nuw %struct.mbedtls_cipher_context_t, ptr %9, i32 0, i32 0
  %11 = load ptr, ptr %10, align 8, !tbaa !36
  %12 = icmp eq ptr %11, null
  br i1 %12, label %13, label %14

13:                                               ; preds = %3
  store i32 -24832, ptr %4, align 4
  br label %56

14:                                               ; preds = %3
  %15 = load ptr, ptr %5, align 8, !tbaa !29
  %16 = getelementptr inbounds nuw %struct.mbedtls_cipher_context_t, ptr %15, i32 0, i32 2
  %17 = load i32, ptr %16, align 4, !tbaa !40
  %18 = icmp ne i32 1, %17
  br i1 %18, label %19, label %20

19:                                               ; preds = %14
  store i32 -24832, ptr %4, align 4
  br label %56

20:                                               ; preds = %14
  %21 = load ptr, ptr %5, align 8, !tbaa !29
  %22 = getelementptr inbounds nuw %struct.mbedtls_cipher_context_t, ptr %21, i32 0, i32 0
  %23 = load ptr, ptr %22, align 8, !tbaa !36
  %24 = getelementptr inbounds nuw %struct.mbedtls_cipher_info_t, ptr %23, i32 0, i32 1
  %25 = load i32, ptr %24, align 8
  %26 = lshr i32 %25, 12
  %27 = and i32 %26, 15
  %28 = icmp eq i32 6, %27
  br i1 %28, label %29, label %36

29:                                               ; preds = %20
  call void @llvm.lifetime.start.p0(i64 8, ptr %8) #7
  %30 = load ptr, ptr %5, align 8, !tbaa !29
  %31 = getelementptr inbounds nuw %struct.mbedtls_cipher_context_t, ptr %30, i32 0, i32 9
  %32 = load ptr, ptr %31, align 8, !tbaa !35
  %33 = load ptr, ptr %6, align 8, !tbaa !18
  %34 = load i64, ptr %7, align 8, !tbaa !43
  %35 = call i32 @mbedtls_gcm_finish(ptr noundef %32, ptr noundef null, i64 noundef 0, ptr noundef %8, ptr noundef %33, i64 noundef %34)
  store i32 %35, ptr %4, align 4
  call void @llvm.lifetime.end.p0(i64 8, ptr %8) #7
  br label %56

36:                                               ; preds = %20
  %37 = load ptr, ptr %5, align 8, !tbaa !29
  %38 = getelementptr inbounds nuw %struct.mbedtls_cipher_context_t, ptr %37, i32 0, i32 0
  %39 = load ptr, ptr %38, align 8, !tbaa !36
  %40 = getelementptr inbounds nuw %struct.mbedtls_cipher_info_t, ptr %39, i32 0, i32 1
  %41 = load i32, ptr %40, align 8
  %42 = lshr i32 %41, 16
  %43 = and i32 %42, 255
  %44 = icmp eq i32 77, %43
  br i1 %44, label %45, label %55

45:                                               ; preds = %36
  %46 = load i64, ptr %7, align 8, !tbaa !43
  %47 = icmp ne i64 %46, 16
  br i1 %47, label %48, label %49

48:                                               ; preds = %45
  store i32 -24832, ptr %4, align 4
  br label %56

49:                                               ; preds = %45
  %50 = load ptr, ptr %5, align 8, !tbaa !29
  %51 = getelementptr inbounds nuw %struct.mbedtls_cipher_context_t, ptr %50, i32 0, i32 9
  %52 = load ptr, ptr %51, align 8, !tbaa !35
  %53 = load ptr, ptr %6, align 8, !tbaa !18
  %54 = call i32 @mbedtls_chachapoly_finish(ptr noundef %52, ptr noundef %53)
  store i32 %54, ptr %4, align 4
  br label %56

55:                                               ; preds = %36
  store i32 -24704, ptr %4, align 4
  br label %56

56:                                               ; preds = %55, %49, %48, %29, %19, %13
  %57 = load i32, ptr %4, align 4
  ret i32 %57
}