; Function Attrs: nounwind uwtable
define hidden i32 @mbedtls_cipher_write_tag(ptr noundef readonly captures(none) %0, ptr noundef %1, i64 noundef %2) local_unnamed_addr #8 {
  %4 = alloca i64, align 8
  %5 = load ptr, ptr %0, align 8, !tbaa !29
  %6 = icmp eq ptr %5, null
  br i1 %6, label %27, label %7

7:                                                ; preds = %3
  %8 = getelementptr inbounds nuw i8, ptr %0, i64 12
  %9 = load i32, ptr %8, align 4, !tbaa !33
  %.not = icmp eq i32 %9, 1
  br i1 %.not, label %10, label %27

10:                                               ; preds = %7
  %11 = getelementptr inbounds nuw i8, ptr %5, i64 8
  %12 = load i32, ptr %11, align 8
  %13 = and i32 %12, 61440
  %14 = icmp eq i32 %13, 24576
  br i1 %14, label %15, label %19

15:                                               ; preds = %10
  call void @llvm.lifetime.start.p0(i64 8, ptr nonnull %4) #15
  %16 = getelementptr inbounds nuw i8, ptr %0, i64 80
  %17 = load ptr, ptr %16, align 8, !tbaa !28
  %18 = call i32 @mbedtls_gcm_finish(ptr noundef %17, ptr noundef null, i64 noundef 0, ptr noundef nonnull %4, ptr noundef %1, i64 noundef %2) #15
  call void @llvm.lifetime.end.p0(i64 8, ptr nonnull %4) #15
  br label %27

19:                                               ; preds = %10
  %20 = and i32 %12, 16711680
  %21 = icmp eq i32 %20, 5046272
  br i1 %21, label %22, label %27

22:                                               ; preds = %19
  %.not11 = icmp eq i64 %2, 16
  br i1 %.not11, label %23, label %27

23:                                               ; preds = %22
  %24 = getelementptr inbounds nuw i8, ptr %0, i64 80
  %25 = load ptr, ptr %24, align 8, !tbaa !28
  %26 = tail call i32 @mbedtls_chachapoly_finish(ptr noundef %25, ptr noundef %1) #15
  br label %27

27:                                               ; preds = %19, %22, %7, %3, %23, %15
  %.0 = phi i32 [ %18, %15 ], [ %26, %23 ], [ -24832, %3 ], [ -24832, %7 ], [ -24832, %22 ], [ -24704, %19 ]
  ret i32 %.0
}